; ModuleID = '9/1445.c'
source_filename = "9/1445.c"
target datalayout = "e-m:e-p270:32:32-p271:32:32-p272:64:64-i64:64-f80:128-n8:16:32:64-S128"
target triple = "x86_64-pc-linux-gnu"

@.str = private unnamed_addr constant [3 x i8] c"%d\00", align 1
@.str.1 = private unnamed_addr constant [3 x i8] c"%s\00", align 1

; Function Attrs: noinline nounwind uwtable
define dso_local i32 @main() #0 {
  %1 = alloca i32, align 4
  %2 = alloca i32, align 4
  %3 = alloca i32, align 4
  %4 = alloca i32, align 4
  %5 = alloca i32, align 4
  %6 = alloca [100 x i32], align 16
  %7 = alloca [100 x i32], align 16
  %8 = alloca [100 x [11 x i8]], align 16
  %9 = alloca [11 x i8], align 1
  %10 = alloca [100 x [11 x i8]], align 16
  store i32 0, i32* %1, align 4
  %11 = bitcast [100 x i32]* %7 to i8*
  call void @llvm.memset.p0i8.i64(i8* align 16 %11, i8 0, i64 400, i1 false)
  %12 = call i32 (i8*, ...) @__isoc99_scanf(i8* getelementptr inbounds ([3 x i8], [3 x i8]* @.str, i64 0, i64 0), i32* %4)
  store i32 0, i32* %2, align 4
  br label %13

13:                                               ; preds = %26, %0
  %14 = load i32, i32* %2, align 4
  %15 = load i32, i32* %4, align 4
  %16 = icmp slt i32 %14, %15
  br i1 %16, label %17, label %29

17:                                               ; preds = %13
  %18 = load i32, i32* %2, align 4
  %19 = sext i32 %18 to i64
  %20 = getelementptr inbounds [100 x [11 x i8]], [100 x [11 x i8]]* %8, i64 0, i64 %19
  %21 = call i32 (i8*, ...) @__isoc99_scanf(i8* getelementptr inbounds ([3 x i8], [3 x i8]* @.str.1, i64 0, i64 0), [11 x i8]* %20)
  %22 = load i32, i32* %2, align 4
  %23 = sext i32 %22 to i64
  %24 = getelementptr inbounds [100 x i32], [100 x i32]* %6, i64 0, i64 %23
  %25 = call i32 (i8*, ...) @__isoc99_scanf(i8* getelementptr inbounds ([3 x i8], [3 x i8]* @.str, i64 0, i64 0), i32* %24)
  br label %26

26:                                               ; preds = %17
  %27 = load i32, i32* %2, align 4
  %28 = add nsw i32 %27, 1
  store i32 %28, i32* %2, align 4
  br label %13

29:                                               ; preds = %13
  store i32 0, i32* %2, align 4
  br label %30

30:                                               ; preds = %58, %29
  %31 = load i32, i32* %2, align 4
  %32 = load i32, i32* %4, align 4
  %33 = icmp slt i32 %31, %32
  br i1 %33, label %34, label %61

34:                                               ; preds = %30
  %35 = load i32, i32* %2, align 4
  %36 = sext i32 %35 to i64
  %37 = getelementptr inbounds [100 x i32], [100 x i32]* %6, i64 0, i64 %36
  %38 = load i32, i32* %37, align 4
  %39 = icmp sge i32 %38, 60
  br i1 %39, label %40, label %57

40:                                               ; preds = %34
  %41 = load i32, i32* %2, align 4
  %42 = sext i32 %41 to i64
  %43 = getelementptr inbounds [100 x i32], [100 x i32]* %6, i64 0, i64 %42
  %44 = load i32, i32* %43, align 4
  %45 = load i32, i32* %2, align 4
  %46 = sext i32 %45 to i64
  %47 = getelementptr inbounds [100 x i32], [100 x i32]* %7, i64 0, i64 %46
  store i32 %44, i32* %47, align 4
  %48 = load i32, i32* %2, align 4
  %49 = sext i32 %48 to i64
  %50 = getelementptr inbounds [100 x [11 x i8]], [100 x [11 x i8]]* %10, i64 0, i64 %49
  %51 = getelementptr inbounds [11 x i8], [11 x i8]* %50, i64 0, i64 0
  %52 = load i32, i32* %2, align 4
  %53 = sext i32 %52 to i64
  %54 = getelementptr inbounds [100 x [11 x i8]], [100 x [11 x i8]]* %8, i64 0, i64 %53
  %55 = getelementptr inbounds [11 x i8], [11 x i8]* %54, i64 0, i64 0
  %56 = call i8* @strcpy(i8* %51, i8* %55) #4
  br label %57

57:                                               ; preds = %40, %34
  br label %58

58:                                               ; preds = %57
  %59 = load i32, i32* %2, align 4
  %60 = add nsw i32 %59, 1
  store i32 %60, i32* %2, align 4
  br label %30

61:                                               ; preds = %30
  store i32 1, i32* %2, align 4
  br label %62

62:                                               ; preds = %130, %61
  %63 = load i32, i32* %2, align 4
  %64 = load i32, i32* %4, align 4
  %65 = icmp sle i32 %63, %64
  br i1 %65, label %66, label %133

66:                                               ; preds = %62
  store i32 0, i32* %3, align 4
  br label %67

67:                                               ; preds = %126, %66
  %68 = load i32, i32* %3, align 4
  %69 = load i32, i32* %4, align 4
  %70 = load i32, i32* %2, align 4
  %71 = sub nsw i32 %69, %70
  %72 = icmp slt i32 %68, %71
  br i1 %72, label %73, label %129

73:                                               ; preds = %67
  %74 = load i32, i32* %3, align 4
  %75 = sext i32 %74 to i64
  %76 = getelementptr inbounds [100 x i32], [100 x i32]* %7, i64 0, i64 %75
  %77 = load i32, i32* %76, align 4
  %78 = load i32, i32* %3, align 4
  %79 = add nsw i32 %78, 1
  %80 = sext i32 %79 to i64
  %81 = getelementptr inbounds [100 x i32], [100 x i32]* %7, i64 0, i64 %80
  %82 = load i32, i32* %81, align 4
  %83 = icmp slt i32 %77, %82
  br i1 %83, label %84, label %125

84:                                               ; preds = %73
  %85 = load i32, i32* %3, align 4
  %86 = sext i32 %85 to i64
  %87 = getelementptr inbounds [100 x i32], [100 x i32]* %7, i64 0, i64 %86
  %88 = load i32, i32* %87, align 4
  store i32 %88, i32* %5, align 4
  %89 = load i32, i32* %3, align 4
  %90 = add nsw i32 %89, 1
  %91 = sext i32 %90 to i64
  %92 = getelementptr inbounds [100 x i32], [100 x i32]* %7, i64 0, i64 %91
  %93 = load i32, i32* %92, align 4
  %94 = load i32, i32* %3, align 4
  %95 = sext i32 %94 to i64
  %96 = getelementptr inbounds [100 x i32], [100 x i32]* %7, i64 0, i64 %95
  store i32 %93, i32* %96, align 4
  %97 = load i32, i32* %5, align 4
  %98 = load i32, i32* %3, align 4
  %99 = add nsw i32 %98, 1
  %100 = sext i32 %99 to i64
  %101 = getelementptr inbounds [100 x i32], [100 x i32]* %7, i64 0, i64 %100
  store i32 %97, i32* %101, align 4
  %102 = getelementptr inbounds [11 x i8], [11 x i8]* %9, i64 0, i64 0
  %103 = load i32, i32* %3, align 4
  %104 = sext i32 %103 to i64
  %105 = getelementptr inbounds [100 x [11 x i8]], [100 x [11 x i8]]* %10, i64 0, i64 %104
  %106 = getelementptr inbounds [11 x i8], [11 x i8]* %105, i64 0, i64 0
  %107 = call i8* @strcpy(i8* %102, i8* %106) #4
  %108 = load i32, i32* %3, align 4
  %109 = sext i32 %108 to i64
  %110 = getelementptr inbounds [100 x [11 x i8]], [100 x [11 x i8]]* %10, i64 0, i64 %109
  %111 = getelementptr inbounds [11 x i8], [11 x i8]* %110, i64 0, i64 0
  %112 = load i32, i32* %3, align 4
  %113 = add nsw i32 %112, 1
  %114 = sext i32 %113 to i64
  %115 = getelementptr inbounds [100 x [11 x i8]], [100 x [11 x i8]]* %10, i64 0, i64 %114
  %116 = getelementptr inbounds [11 x i8], [11 x i8]* %115, i64 0, i64 0
  %117 = call i8* @strcpy(i8* %111, i8* %116) #4
  %118 = load i32, i32* %3, align 4
  %119 = add nsw i32 %118, 1
  %120 = sext i32 %119 to i64
  %121 = getelementptr inbounds [100 x [11 x i8]], [100 x [11 x i8]]* %10, i64 0, i64 %120
  %122 = getelementptr inbounds [11 x i8], [11 x i8]* %121, i64 0, i64 0
  %123 = getelementptr inbounds [11 x i8], [11 x i8]* %9, i64 0, i64 0
  %124 = call i8* @strcpy(i8* %122, i8* %123) #4
  br label %125

125:                                              ; preds = %84, %73
  br label %126

126:                                              ; preds = %125
  %127 = load i32, i32* %3, align 4
  %128 = add nsw i32 %127, 1
  store i32 %128, i32* %3, align 4
  br label %67

129:                                              ; preds = %67
  br label %130

130:                                              ; preds = %129
  %131 = load i32, i32* %2, align 4
  %132 = add nsw i32 %131, 1
  store i32 %132, i32* %2, align 4
  br label %62

133:                                              ; preds = %62
  store i32 0, i32* %2, align 4
  br label %134

134:                                              ; preds = %151, %133
  %135 = load i32, i32* %2, align 4
  %136 = load i32, i32* %4, align 4
  %137 = icmp slt i32 %135, %136
  br i1 %137, label %138, label %154

138:                                              ; preds = %134
  %139 = load i32, i32* %2, align 4
  %140 = sext i32 %139 to i64
  %141 = getelementptr inbounds [100 x i32], [100 x i32]* %7, i64 0, i64 %140
  %142 = load i32, i32* %141, align 4
  %143 = icmp sge i32 %142, 60
  br i1 %143, label %144, label %150

144:                                              ; preds = %138
  %145 = load i32, i32* %2, align 4
  %146 = sext i32 %145 to i64
  %147 = getelementptr inbounds [100 x [11 x i8]], [100 x [11 x i8]]* %10, i64 0, i64 %146
  %148 = getelementptr inbounds [11 x i8], [11 x i8]* %147, i64 0, i64 0
  %149 = call i32 @puts(i8* %148)
  br label %150

150:                                              ; preds = %144, %138
  br label %151

151:                                              ; preds = %150
  %152 = load i32, i32* %2, align 4
  %153 = add nsw i32 %152, 1
  store i32 %153, i32* %2, align 4
  br label %134

154:                                              ; preds = %134
  store i32 0, i32* %2, align 4
  br label %155

155:                                              ; preds = %172, %154
  %156 = load i32, i32* %2, align 4
  %157 = load i32, i32* %4, align 4
  %158 = icmp slt i32 %156, %157
  br i1 %158, label %159, label %175

159:                                              ; preds = %155
  %160 = load i32, i32* %2, align 4
  %161 = sext i32 %160 to i64
  %162 = getelementptr inbounds [100 x i32], [100 x i32]* %6, i64 0, i64 %161
  %163 = load i32, i32* %162, align 4
  %164 = icmp slt i32 %163, 60
  br i1 %164, label %165, label %171

165:                                              ; preds = %159
  %166 = load i32, i32* %2, align 4
  %167 = sext i32 %166 to i64
  %168 = getelementptr inbounds [100 x [11 x i8]], [100 x [11 x i8]]* %8, i64 0, i64 %167
  %169 = getelementptr inbounds [11 x i8], [11 x i8]* %168, i64 0, i64 0
  %170 = call i32 @puts(i8* %169)
  br label %171

171:                                              ; preds = %165, %159
  br label %172

172:                                              ; preds = %171
  %173 = load i32, i32* %2, align 4
  %174 = add nsw i32 %173, 1
  store i32 %174, i32* %2, align 4
  br label %155

175:                                              ; preds = %155
  ret i32 0
}

; Function Attrs: argmemonly nounwind willreturn
declare void @llvm.memset.p0i8.i64(i8* nocapture writeonly, i8, i64, i1 immarg) #1

declare dso_local i32 @__isoc99_scanf(i8*, ...) #2

; Function Attrs: nounwind
declare dso_local i8* @strcpy(i8*, i8*) #3

declare dso_local i32 @puts(i8*) #2


!llvm.module.flags = !{!0}
!llvm.ident = !{!1}

!0 = !{i32 1, !"wchar_size", i32 4}
!1 = !{!"clang version 10.0.0-4ubuntu1 "}
